target datalayout = "e-m:e-p270:32:32-p271:32:32-p272:64:64-i64:64-i128:128-f80:128-n8:16:32:64-S128"
target triple = "x86_64-pc-linux-gnu"

%struct.AVProbeData = type { ptr, ptr, i32, ptr }

; Function Attrs: nounwind uwtable
define internal i32 @rm_probe(ptr noundef %0) #0 {
  %2 = alloca i32, align 4
  %3 = alloca ptr, align 8
  store ptr %0, ptr %3, align 8, !tbaa !119
  %4 = load ptr, ptr %3, align 8, !tbaa !119
  %5 = getelementptr inbounds nuw %struct.AVProbeData, ptr %4, i32 0, i32 1
  %6 = load ptr, ptr %5, align 8, !tbaa !121
  %7 = getelementptr inbounds i8, ptr %6, i64 0
  %8 = load i8, ptr %7, align 1, !tbaa !36
  %9 = zext i8 %8 to i32
  %10 = icmp eq i32 %9, 46
  br i1 %10, label %11, label %59

11:                                               ; preds = %1
  %12 = load ptr, ptr %3, align 8, !tbaa !119
  %13 = getelementptr inbounds nuw %struct.AVProbeData, ptr %12, i32 0, i32 1
  %14 = load ptr, ptr %13, align 8, !tbaa !121
  %15 = getelementptr inbounds i8, ptr %14, i64 1
  %16 = load i8, ptr %15, align 1, !tbaa !36
  %17 = zext i8 %16 to i32
  %18 = icmp eq i32 %17, 82
  br i1 %18, label %19, label %59

19:                                               ; preds = %11
  %20 = load ptr, ptr %3, align 8, !tbaa !119
  %21 = getelementptr inbounds nuw %struct.AVProbeData, ptr %20, i32 0, i32 1
  %22 = load ptr, ptr %21, align 8, !tbaa !121
  %23 = getelementptr inbounds i8, ptr %22, i64 2
  %24 = load i8, ptr %23, align 1, !tbaa !36
  %25 = zext i8 %24 to i32
  %26 = icmp eq i32 %25, 77
  br i1 %26, label %27, label %59

27:                                               ; preds = %19
  %28 = load ptr, ptr %3, align 8, !tbaa !119
  %29 = getelementptr inbounds nuw %struct.AVProbeData, ptr %28, i32 0, i32 1
  %30 = load ptr, ptr %29, align 8, !tbaa !121
  %31 = getelementptr inbounds i8, ptr %30, i64 3
  %32 = load i8, ptr %31, align 1, !tbaa !36
  %33 = zext i8 %32 to i32
  %34 = icmp eq i32 %33, 70
  br i1 %34, label %43, label %35

35:                                               ; preds = %27
  %36 = load ptr, ptr %3, align 8, !tbaa !119
  %37 = getelementptr inbounds nuw %struct.AVProbeData, ptr %36, i32 0, i32 1
  %38 = load ptr, ptr %37, align 8, !tbaa !121
  %39 = getelementptr inbounds i8, ptr %38, i64 3
  %40 = load i8, ptr %39, align 1, !tbaa !36
  %41 = zext i8 %40 to i32
  %42 = icmp eq i32 %41, 80
  br i1 %42, label %43, label %59

43:                                               ; preds = %35, %27
  %44 = load ptr, ptr %3, align 8, !tbaa !119
  %45 = getelementptr inbounds nuw %struct.AVProbeData, ptr %44, i32 0, i32 1
  %46 = load ptr, ptr %45, align 8, !tbaa !121
  %47 = getelementptr inbounds i8, ptr %46, i64 4
  %48 = load i8, ptr %47, align 1, !tbaa !36
  %49 = zext i8 %48 to i32
  %50 = icmp eq i32 %49, 0
  br i1 %50, label %51, label %59

51:                                               ; preds = %43
  %52 = load ptr, ptr %3, align 8, !tbaa !119
  %53 = getelementptr inbounds nuw %struct.AVProbeData, ptr %52, i32 0, i32 1
  %54 = load ptr, ptr %53, align 8, !tbaa !121
  %55 = getelementptr inbounds i8, ptr %54, i64 5
  %56 = load i8, ptr %55, align 1, !tbaa !36
  %57 = zext i8 %56 to i32
  %58 = icmp eq i32 %57, 0
  br i1 %58, label %91, label %59

59:                                               ; preds = %51, %43, %35, %19, %11, %1
  %60 = load ptr, ptr %3, align 8, !tbaa !119
  %61 = getelementptr inbounds nuw %struct.AVProbeData, ptr %60, i32 0, i32 1
  %62 = load ptr, ptr %61, align 8, !tbaa !121
  %63 = getelementptr inbounds i8, ptr %62, i64 0
  %64 = load i8, ptr %63, align 1, !tbaa !36
  %65 = zext i8 %64 to i32
  %66 = icmp eq i32 %65, 46
  br i1 %66, label %67, label %92

67:                                               ; preds = %59
  %68 = load ptr, ptr %3, align 8, !tbaa !119
  %69 = getelementptr inbounds nuw %struct.AVProbeData, ptr %68, i32 0, i32 1
  %70 = load ptr, ptr %69, align 8, !tbaa !121
  %71 = getelementptr inbounds i8, ptr %70, i64 1
  %72 = load i8, ptr %71, align 1, !tbaa !36
  %73 = zext i8 %72 to i32
  %74 = icmp eq i32 %73, 114
  br i1 %74, label %75, label %92

75:                                               ; preds = %67
  %76 = load ptr, ptr %3, align 8, !tbaa !119
  %77 = getelementptr inbounds nuw %struct.AVProbeData, ptr %76, i32 0, i32 1
  %78 = load ptr, ptr %77, align 8, !tbaa !121
  %79 = getelementptr inbounds i8, ptr %78, i64 2
  %80 = load i8, ptr %79, align 1, !tbaa !36
  %81 = zext i8 %80 to i32
  %82 = icmp eq i32 %81, 97
  br i1 %82, label %83, label %92

83:                                               ; preds = %75
  %84 = load ptr, ptr %3, align 8, !tbaa !119
  %85 = getelementptr inbounds nuw %struct.AVProbeData, ptr %84, i32 0, i32 1
  %86 = load ptr, ptr %85, align 8, !tbaa !121
  %87 = getelementptr inbounds i8, ptr %86, i64 3
  %88 = load i8, ptr %87, align 1, !tbaa !36
  %89 = zext i8 %88 to i32
  %90 = icmp eq i32 %89, 253
  br i1 %90, label %91, label %92

91:                                               ; preds = %83, %51
  store i32 100, ptr %2, align 4
  br label %93

92:                                               ; preds = %83, %75, %67, %59
  store i32 0, ptr %2, align 4
  br label %93

93:                                               ; preds = %92, %91
  %94 = load i32, ptr %2, align 4
  ret i32 %94
}