; Function Attrs: mustprogress nofree norecurse nosync nounwind willreturn memory(read, inaccessiblemem: none) uwtable
define internal range(i32 0, 101) i32 @rm_probe(ptr noundef readonly captures(none) %0) #6 {
  %2 = getelementptr inbounds nuw i8, ptr %0, i64 8
  %3 = load ptr, ptr %2, align 8, !tbaa !97
  %4 = load i8, ptr %3, align 1, !tbaa !25
  %5 = icmp eq i8 %4, 46
  br i1 %5, label %6, label %.thread

6:                                                ; preds = %1
  %7 = getelementptr inbounds nuw i8, ptr %3, i64 1
  %8 = load i8, ptr %7, align 1, !tbaa !25
  switch i8 %8, label %.thread [
    i8 82, label %9
    i8 114, label %24
  ]

9:                                                ; preds = %6
  %10 = getelementptr inbounds nuw i8, ptr %3, i64 2
  %11 = load i8, ptr %10, align 1, !tbaa !25
  %12 = icmp eq i8 %11, 77
  br i1 %12, label %13, label %.thread

13:                                               ; preds = %9
  %14 = getelementptr inbounds nuw i8, ptr %3, i64 3
  %15 = load i8, ptr %14, align 1, !tbaa !25
  switch i8 %15, label %.thread [
    i8 70, label %16
    i8 80, label %16
  ]

16:                                               ; preds = %13, %13
  %17 = getelementptr inbounds nuw i8, ptr %3, i64 4
  %18 = load i8, ptr %17, align 1, !tbaa !25
  %19 = icmp eq i8 %18, 0
  br i1 %19, label %20, label %.thread

20:                                               ; preds = %16
  %21 = getelementptr inbounds nuw i8, ptr %3, i64 5
  %22 = load i8, ptr %21, align 1, !tbaa !25
  %23 = icmp eq i8 %22, 0
  br i1 %23, label %32, label %.thread

24:                                               ; preds = %6
  %25 = getelementptr inbounds nuw i8, ptr %3, i64 2
  %26 = load i8, ptr %25, align 1, !tbaa !25
  %27 = icmp eq i8 %26, 97
  br i1 %27, label %28, label %.thread

28:                                               ; preds = %24
  %29 = getelementptr inbounds nuw i8, ptr %3, i64 3
  %30 = load i8, ptr %29, align 1, !tbaa !25
  %31 = icmp eq i8 %30, -3
  br i1 %31, label %32, label %.thread

.thread:                                          ; preds = %6, %9, %16, %20, %13, %1, %28, %24
  br label %32

32:                                               ; preds = %20, %28, %.thread
  %.0 = phi i32 [ 0, %.thread ], [ 100, %28 ], [ 100, %20 ]
  ret i32 %.0
}